; Function Attrs: nounwind uwtable
define dso_local i64 @binary_decode(ptr noundef readonly captures(none) %0) local_unnamed_addr #0 {
  %2 = getelementptr inbounds nuw i8, ptr %0, i64 32
  %3 = load i64, ptr %2, align 8
  %4 = inttoptr i64 %3 to ptr
  %5 = tail call ptr @pg_detoast_datum_packed(ptr noundef %4) #7
  %6 = getelementptr inbounds nuw i8, ptr %0, i64 48
  %7 = load i64, ptr %6, align 8
  %8 = inttoptr i64 %7 to ptr
  %9 = tail call ptr @text_to_cstring(ptr noundef %8) #7
  %10 = tail call i32 @pg_strcasecmp(ptr noundef nonnull @.str.8, ptr noundef %9) #7
  %11 = icmp eq i32 %10, 0
  br i1 %11, label %._crit_edge, label %.lr.ph

.lr.ph:                                           ; preds = %1, %12
  %indvars.iv.i36 = phi i64 [ %indvars.iv.next.i, %12 ], [ 0, %1 ]
  %indvars.iv.next.i = add nuw nsw i64 %indvars.iv.i36, 1
  %exitcond.i = icmp eq i64 %indvars.iv.next.i, 3
  br i1 %exitcond.i, label %17, label %12, !llvm.loop !4

12:                                               ; preds = %.lr.ph
  %13 = getelementptr inbounds nuw [4 x %struct.anon.1], ptr @enclist, i64 0, i64 %indvars.iv.next.i
  %14 = load ptr, ptr %13, align 8
  %15 = tail call i32 @pg_strcasecmp(ptr noundef nonnull %14, ptr noundef %9) #7
  %16 = icmp eq i32 %15, 0
  br i1 %16, label %._crit_edge, label %.lr.ph, !llvm.loop !4

17:                                               ; preds = %.lr.ph
  %18 = tail call zeroext i1 @errstart_cold(i32 noundef 21, ptr noundef null) #8
  tail call void @llvm.assume(i1 %18)
  %19 = tail call i32 @errcode(i32 noundef 50856066) #7
  %20 = tail call i32 (ptr, ...) @errmsg(ptr noundef nonnull @.str, ptr noundef %9) #7
  tail call void @errfinish(ptr noundef nonnull @.str.1, i32 noundef 114, ptr noundef nonnull @__func__.binary_decode) #7
  unreachable

._crit_edge:                                      ; preds = %12, %1
  %.lcssa = phi ptr [ @enclist, %1 ], [ %13, %12 ]
  %21 = load i8, ptr %5, align 1
  %22 = zext i8 %21 to i32
  %23 = and i32 %22, 1
  %.not = icmp eq i32 %23, 0
  %24 = getelementptr inbounds nuw i8, ptr %5, i64 1
  %25 = getelementptr inbounds nuw i8, ptr %5, i64 4
  %26 = select i1 %.not, ptr %25, ptr %24
  %27 = icmp eq i8 %21, 1
  br i1 %27, label %28, label %36

28:                                               ; preds = %._crit_edge
  %29 = load i8, ptr %24, align 1
  %30 = icmp eq i8 %29, 1
  %31 = and i8 %29, -2
  %32 = icmp eq i8 %31, 2
  %or.cond = or i1 %30, %32
  %33 = icmp eq i8 %29, 18
  %34 = select i1 %33, i64 16, i64 0
  %35 = select i1 %or.cond, i64 8, i64 %34
  br label %46

36:                                               ; preds = %._crit_edge
  br i1 %.not, label %41, label %37

37:                                               ; preds = %36
  %38 = lshr i32 %22, 1
  %39 = zext nneg i32 %38 to i64
  %40 = add nsw i64 %39, -1
  br label %46

41:                                               ; preds = %36
  %42 = load i32, ptr %5, align 4
  %43 = lshr i32 %42, 2
  %44 = add nsw i32 %43, -4
  %45 = zext i32 %44 to i64
  br label %46

46:                                               ; preds = %37, %41, %28
  %47 = phi i64 [ %35, %28 ], [ %40, %37 ], [ %45, %41 ]
  %48 = getelementptr inbounds nuw i8, ptr %.lcssa, i64 16
  %49 = load ptr, ptr %48, align 8
  %50 = tail call i64 %49(ptr noundef nonnull %26, i64 noundef %47) #7
  %51 = icmp ugt i64 %50, 1073741819
  br i1 %51, label %52, label %56

52:                                               ; preds = %46
  %53 = tail call zeroext i1 @errstart_cold(i32 noundef 21, ptr noundef null) #8
  tail call void @llvm.assume(i1 %53)
  %54 = tail call i32 @errcode(i32 noundef 261) #7
  %55 = tail call i32 (ptr, ...) @errmsg(ptr noundef nonnull @.str.4) #7
  tail call void @errfinish(ptr noundef nonnull @.str.1, i32 noundef 128, ptr noundef nonnull @__func__.binary_decode) #7
  unreachable

56:                                               ; preds = %46
  %57 = add nuw nsw i64 %50, 4
  %58 = tail call ptr @palloc(i64 noundef %57) #7
  %59 = getelementptr inbounds nuw i8, ptr %.lcssa, i64 32
  %60 = load ptr, ptr %59, align 8
  %61 = getelementptr inbounds nuw i8, ptr %58, i64 4
  %62 = tail call i64 %60(ptr noundef nonnull %26, i64 noundef %47, ptr noundef nonnull %61) #7
  %63 = icmp ugt i64 %62, %50
  br i1 %63, label %64, label %67

64:                                               ; preds = %56
  %65 = tail call zeroext i1 @errstart_cold(i32 noundef 22, ptr noundef null) #8
  tail call void @llvm.assume(i1 %65)
  %66 = tail call i32 (ptr, ...) @errmsg_internal(ptr noundef nonnull @.str.5) #7
  tail call void @errfinish(ptr noundef nonnull @.str.1, i32 noundef 136, ptr noundef nonnull @__func__.binary_decode) #7
  unreachable

67:                                               ; preds = %56
  %68 = trunc i64 %62 to i32
  %69 = shl nuw i32 %68, 2
  %70 = add nuw i32 %69, 16
  store i32 %70, ptr %58, align 4
  %71 = ptrtoint ptr %58 to i64
  ret i64 %71
}